target datalayout = "e-m:e-p270:32:32-p271:32:32-p272:64:64-i64:64-i128:128-f80:128-n8:16:32:64-S128"
target triple = "x86_64-pc-linux-gnu"

%union.SourceSpan = type { i64 }
%struct.Type_ = type { i32, ptr, ptr, ptr, %union.anon.86, ptr, ptr, %union.anon.88 }
%union.anon.86 = type { ptr }
%union.anon.88 = type { %struct.TypeFunction }
%struct.TypeFunction = type { ptr, ptr, ptr }
%struct.TypeInfo_ = type { i16, ptr, %union.SourceSpan, %union.anon.23 }
%union.anon.23 = type { %struct.anon.24 }
%struct.anon.24 = type { ptr, ptr }
%struct.Decl_ = type { ptr, ptr, %union.SourceSpan, i64, %union.anon, i32, %union.anon.0, i64, ptr, ptr, ptr, %union.anon.1 }
%union.anon = type { ptr }
%union.anon.0 = type { i16 }
%union.anon.1 = type { %struct.FuncDecl }
%struct.FuncDecl = type { i32, [4 x i8], %struct.Signature_, i32, i32, %union.anon.8 }
%struct.Signature_ = type <{ %struct.CalleeAttributes, i16, i8, i32, i32, [4 x i8], ptr }>
%struct.CalleeAttributes = type { i8 }
%union.anon.8 = type { %struct.anon.9 }
%struct.anon.9 = type { i16, %union.anon.10 }
%union.anon.10 = type { ptr }
%struct.anon.2 = type { ptr, ptr, %union.anon.3 }
%union.anon.3 = type { %struct.BitStructDecl }
%struct.BitStructDecl = type { ptr, ptr, i8 }

@.str.33 = private unnamed_addr constant [36 x i8] c"FATAL ERROR %s -> in %s @ in %s:%d \00", align 1
@.str.34 = private unnamed_addr constant [22 x i8] c"Should be unreachable\00", align 1
@.str.35 = private unnamed_addr constant [110 x i8] c"generated/home/dtcxzyw/WorkSpace/Projects/compilers/llvm-opt-benchmark/bench/c3c/c3c/src/compiler/sema_expr.c\00", align 1
@__func__.type_flatten = private unnamed_addr constant [13 x i8] c"type_flatten\00", align 1
@.str.95 = private unnamed_addr constant [118 x i8] c"generated/home/dtcxzyw/WorkSpace/Projects/compilers/llvm-opt-benchmark/bench/c3c/c3c/src/compiler/compiler_internal.h\00", align 1
@__func__.sema_type_property_is_valid_for_type = private unnamed_addr constant [37 x i8] c"sema_type_property_is_valid_for_type\00", align 1

; Function Attrs: nounwind uwtable
define internal ptr @type_flatten(ptr noundef %0) #0 {
  %2 = alloca ptr, align 8
  store ptr %0, ptr %2, align 8
  br label %3

3:                                                ; preds = %28, %1
  %4 = load ptr, ptr %2, align 8
  %5 = getelementptr inbounds %struct.Type_, ptr %4, i32 0, i32 1
  %6 = load ptr, ptr %5, align 8
  store ptr %6, ptr %2, align 8
  %7 = load ptr, ptr %2, align 8
  %8 = getelementptr inbounds %struct.Type_, ptr %7, i32 0, i32 0
  %9 = load i32, ptr %8, align 8
  switch i32 %9, label %26 [
    i32 32, label %10
    i32 40, label %19
    i32 31, label %23
  ]

10:                                               ; preds = %3
  %11 = load ptr, ptr %2, align 8
  %12 = getelementptr inbounds %struct.Type_, ptr %11, i32 0, i32 7
  %13 = load ptr, ptr %12, align 8
  %14 = getelementptr inbounds %struct.Decl_, ptr %13, i32 0, i32 11
  %15 = getelementptr inbounds %struct.anon.2, ptr %14, i32 0, i32 2
  %16 = load ptr, ptr %15, align 8
  %17 = getelementptr inbounds %struct.TypeInfo_, ptr %16, i32 0, i32 1
  %18 = load ptr, ptr %17, align 8
  store ptr %18, ptr %2, align 8
  br label %28

19:                                               ; preds = %3
  %20 = load ptr, ptr %2, align 8
  %21 = getelementptr inbounds %struct.Type_, ptr %20, i32 0, i32 7
  %22 = load ptr, ptr %21, align 8
  store ptr %22, ptr %2, align 8
  br label %28

23:                                               ; preds = %3
  br label %24

24:                                               ; preds = %23
  call void (ptr, ...) @error_exit(ptr noundef @.str.33, ptr noundef @.str.34, ptr noundef @__func__.type_flatten, ptr noundef @.str.95, i32 noundef 2984) #6
  unreachable

25:                                               ; No predecessors!
  br label %26

26:                                               ; preds = %25, %3
  %27 = load ptr, ptr %2, align 8
  ret ptr %27

28:                                               ; preds = %19, %10
  br label %3
}

; Function Attrs: nounwind uwtable
define internal zeroext i1 @sema_type_property_is_valid_for_type(ptr noundef %0, i32 noundef %1) #0 {
  %3 = alloca i32, align 4
  %4 = alloca i32, align 4
  %5 = alloca ptr, align 8
  %6 = alloca i32, align 4
  %7 = alloca ptr, align 8
  %8 = alloca i32, align 4
  %9 = alloca ptr, align 8
  %10 = alloca i32, align 4
  %11 = alloca i1, align 1
  %12 = alloca ptr, align 8
  %13 = alloca i32, align 4
  %14 = alloca ptr, align 8
  store ptr %0, ptr %12, align 8
  store i32 %1, ptr %13, align 4
  %15 = load ptr, ptr %12, align 8
  %16 = call ptr @type_flatten(ptr noundef %15)
  store ptr %16, ptr %14, align 8
  %17 = load i32, ptr %13, align 4
  switch i32 %17, label %146 [
    i32 22, label %18
    i32 4, label %19
    i32 11, label %19
    i32 12, label %38
    i32 13, label %44
    i32 20, label %44
    i32 0, label %44
    i32 15, label %44
    i32 18, label %44
    i32 17, label %44
    i32 6, label %44
    i32 5, label %44
    i32 7, label %45
    i32 10, label %51
    i32 8, label %51
    i32 2, label %91
    i32 14, label %91
    i32 21, label %91
    i32 1, label %102
    i32 9, label %107
    i32 16, label %113
    i32 19, label %113
    i32 3, label %134
  ]

18:                                               ; preds = %2
  store i1 false, ptr %11, align 1
  br label %148

19:                                               ; preds = %2, %2
  %20 = load ptr, ptr %14, align 8
  store ptr %20, ptr %5, align 8
  %21 = load ptr, ptr %5, align 8
  %22 = load i32, ptr %21, align 8
  store i32 %22, ptr %6, align 4
  %23 = load i32, ptr %6, align 4
  %24 = icmp eq i32 %23, 31
  br i1 %24, label %25, label %30

25:                                               ; preds = %19
  %26 = load ptr, ptr %5, align 8
  %27 = getelementptr inbounds %struct.Type_, ptr %26, i32 0, i32 1
  %28 = load ptr, ptr %27, align 8
  %29 = load i32, ptr %28, align 8
  store i32 %29, ptr %6, align 4
  br label %30

30:                                               ; preds = %25, %19
  %31 = load i32, ptr %6, align 4
  %32 = icmp uge i32 %31, 13
  br i1 %32, label %33, label %36

33:                                               ; preds = %30
  %34 = load i32, ptr %6, align 4
  %35 = icmp ule i32 %34, 17
  br label %36

36:                                               ; preds = %33, %30
  %37 = phi i1 [ false, %30 ], [ %35, %33 ]
  store i1 %37, ptr %11, align 1
  br label %148

38:                                               ; preds = %2
  %39 = load ptr, ptr %12, align 8
  %40 = getelementptr inbounds %struct.Type_, ptr %39, i32 0, i32 0
  %41 = load i32, ptr %40, align 8
  switch i32 %41, label %43 [
    i32 23, label %42
    i32 40, label %42
    i32 32, label %42
    i32 24, label %42
    i32 29, label %42
    i32 33, label %42
    i32 35, label %42
    i32 34, label %42
    i32 36, label %42
    i32 38, label %42
    i32 37, label %42
  ]

42:                                               ; preds = %38, %38, %38, %38, %38, %38, %38, %38, %38, %38, %38
  store i1 true, ptr %11, align 1
  br label %148

43:                                               ; preds = %38
  store i1 false, ptr %11, align 1
  br label %148

44:                                               ; preds = %2, %2, %2, %2, %2, %2, %2, %2
  store i1 true, ptr %11, align 1
  br label %148

45:                                               ; preds = %2
  %46 = load ptr, ptr %14, align 8
  %47 = getelementptr inbounds %struct.Type_, ptr %46, i32 0, i32 0
  %48 = load i32, ptr %47, align 8
  switch i32 %48, label %50 [
    i32 33, label %49
    i32 37, label %49
    i32 24, label %49
    i32 30, label %49
  ]

49:                                               ; preds = %45, %45, %45, %45
  store i1 true, ptr %11, align 1
  br label %148

50:                                               ; preds = %45
  store i1 false, ptr %11, align 1
  br label %148

51:                                               ; preds = %2, %2
  %52 = load ptr, ptr %14, align 8
  store ptr %52, ptr %7, align 8
  %53 = load ptr, ptr %7, align 8
  %54 = load i32, ptr %53, align 8
  store i32 %54, ptr %8, align 4
  %55 = load i32, ptr %8, align 4
  %56 = icmp eq i32 %55, 31
  br i1 %56, label %57, label %62

57:                                               ; preds = %51
  %58 = load ptr, ptr %7, align 8
  %59 = getelementptr inbounds %struct.Type_, ptr %58, i32 0, i32 1
  %60 = load ptr, ptr %59, align 8
  %61 = load i32, ptr %60, align 8
  store i32 %61, ptr %8, align 4
  br label %62

62:                                               ; preds = %57, %51
  %63 = load i32, ptr %8, align 4
  %64 = icmp uge i32 %63, 13
  br i1 %64, label %65, label %68

65:                                               ; preds = %62
  %66 = load i32, ptr %8, align 4
  %67 = icmp ule i32 %66, 17
  br label %68

68:                                               ; preds = %65, %62
  %69 = phi i1 [ false, %62 ], [ %67, %65 ]
  br i1 %69, label %89, label %70

70:                                               ; preds = %68
  %71 = load ptr, ptr %14, align 8
  store ptr %71, ptr %9, align 8
  %72 = load ptr, ptr %9, align 8
  %73 = load i32, ptr %72, align 8
  store i32 %73, ptr %10, align 4
  %74 = load i32, ptr %10, align 4
  %75 = icmp eq i32 %74, 31
  br i1 %75, label %76, label %81

76:                                               ; preds = %70
  %77 = load ptr, ptr %9, align 8
  %78 = getelementptr inbounds %struct.Type_, ptr %77, i32 0, i32 1
  %79 = load ptr, ptr %78, align 8
  %80 = load i32, ptr %79, align 8
  store i32 %80, ptr %10, align 4
  br label %81

81:                                               ; preds = %76, %70
  %82 = load i32, ptr %10, align 4
  %83 = icmp uge i32 %82, 3
  br i1 %83, label %84, label %87

84:                                               ; preds = %81
  %85 = load i32, ptr %10, align 4
  %86 = icmp ule i32 %85, 12
  br label %87

87:                                               ; preds = %84, %81
  %88 = phi i1 [ false, %81 ], [ %86, %84 ]
  br label %89

89:                                               ; preds = %87, %68
  %90 = phi i1 [ true, %68 ], [ %88, %87 ]
  store i1 %90, ptr %11, align 1
  br label %148

91:                                               ; preds = %2, %2, %2
  %92 = load ptr, ptr %14, align 8
  %93 = getelementptr inbounds %struct.Type_, ptr %92, i32 0, i32 0
  %94 = load i32, ptr %93, align 8
  store i32 %94, ptr %4, align 4
  %95 = load i32, ptr %4, align 4
  %96 = icmp eq i32 %95, 24
  br i1 %96, label %100, label %97

97:                                               ; preds = %91
  %98 = load i32, ptr %4, align 4
  %99 = icmp eq i32 %98, 30
  br label %100

100:                                              ; preds = %97, %91
  %101 = phi i1 [ true, %91 ], [ %99, %97 ]
  store i1 %101, ptr %11, align 1
  br label %148

102:                                              ; preds = %2
  %103 = load ptr, ptr %14, align 8
  %104 = getelementptr inbounds %struct.Type_, ptr %103, i32 0, i32 0
  %105 = load i32, ptr %104, align 8
  %106 = icmp eq i32 %105, 24
  store i1 %106, ptr %11, align 1
  br label %148

107:                                              ; preds = %2
  %108 = load ptr, ptr %14, align 8
  %109 = getelementptr inbounds %struct.Type_, ptr %108, i32 0, i32 0
  %110 = load i32, ptr %109, align 8
  switch i32 %110, label %112 [
    i32 26, label %111
    i32 27, label %111
    i32 29, label %111
  ]

111:                                              ; preds = %107, %107, %107
  store i1 true, ptr %11, align 1
  br label %148

112:                                              ; preds = %107
  store i1 false, ptr %11, align 1
  br label %148

113:                                              ; preds = %2, %2
  %114 = load ptr, ptr %14, align 8
  %115 = getelementptr inbounds %struct.Type_, ptr %114, i32 0, i32 0
  %116 = load i32, ptr %115, align 8
  %117 = icmp eq i32 %116, 25
  br i1 %117, label %132, label %118

118:                                              ; preds = %113
  %119 = load ptr, ptr %14, align 8
  %120 = getelementptr inbounds %struct.Type_, ptr %119, i32 0, i32 0
  %121 = load i32, ptr %120, align 8
  %122 = icmp eq i32 %121, 23
  br i1 %122, label %123, label %130

123:                                              ; preds = %118
  %124 = load ptr, ptr %14, align 8
  %125 = getelementptr inbounds %struct.Type_, ptr %124, i32 0, i32 7
  %126 = load ptr, ptr %125, align 8
  %127 = getelementptr inbounds %struct.Type_, ptr %126, i32 0, i32 0
  %128 = load i32, ptr %127, align 8
  %129 = icmp eq i32 %128, 25
  br label %130

130:                                              ; preds = %123, %118
  %131 = phi i1 [ false, %118 ], [ %129, %123 ]
  br label %132

132:                                              ; preds = %130, %113
  %133 = phi i1 [ true, %113 ], [ %131, %130 ]
  store i1 %133, ptr %11, align 1
  br label %148

134:                                              ; preds = %2
  %135 = load ptr, ptr %14, align 8
  %136 = getelementptr inbounds %struct.Type_, ptr %135, i32 0, i32 0
  %137 = load i32, ptr %136, align 8
  store i32 %137, ptr %3, align 4
  %138 = load i32, ptr %3, align 4
  %139 = icmp uge i32 %138, 1
  br i1 %139, label %140, label %143

140:                                              ; preds = %134
  %141 = load i32, ptr %3, align 4
  %142 = icmp ule i32 %141, 22
  br label %143

143:                                              ; preds = %140, %134
  %144 = phi i1 [ false, %134 ], [ %142, %140 ]
  %145 = xor i1 %144, true
  store i1 %145, ptr %11, align 1
  br label %148

146:                                              ; preds = %2
  br label %147

147:                                              ; preds = %146
  call void (ptr, ...) @error_exit(ptr noundef @.str.33, ptr noundef @.str.34, ptr noundef @__func__.sema_type_property_is_valid_for_type, ptr noundef @.str.35, i32 noundef 3765) #6
  unreachable

148:                                              ; preds = %143, %132, %112, %111, %102, %100, %89, %50, %49, %44, %43, %42, %36, %18
  %149 = load i1, ptr %11, align 1
  ret i1 %149
}