; Function Attrs: nounwind uwtable
define internal fastcc zeroext i1 @sema_type_property_is_valid_for_type(ptr nocapture noundef readonly %0, i32 noundef %1) unnamed_addr #0 {
  br label %3

3:                                                ; preds = %16, %2
  %.0.i = phi ptr [ %0, %2 ], [ %.1.i, %16 ]
  %4 = getelementptr inbounds i8, ptr %.0.i, i64 8
  %5 = load ptr, ptr %4, align 8
  %6 = load i32, ptr %5, align 8
  switch i32 %6, label %type_flatten.exit [
    i32 32, label %7
    i32 40, label %13
    i32 31, label %15
  ]

7:                                                ; preds = %3
  %8 = getelementptr inbounds i8, ptr %5, i64 56
  %9 = load ptr, ptr %8, align 8
  %10 = getelementptr inbounds i8, ptr %9, i64 96
  %11 = load ptr, ptr %10, align 8
  %12 = getelementptr inbounds i8, ptr %11, i64 8
  br label %16

13:                                               ; preds = %3
  %14 = getelementptr inbounds i8, ptr %5, i64 56
  br label %16

15:                                               ; preds = %3
  tail call void (ptr, ...) @error_exit(ptr noundef nonnull @.str.33, ptr noundef nonnull @.str.34, ptr noundef nonnull @__func__.type_flatten, ptr noundef nonnull @.str.95, i32 noundef 2984) #14
  unreachable

16:                                               ; preds = %13, %7
  %.1.in.i = phi ptr [ %14, %13 ], [ %12, %7 ]
  %.1.i = load ptr, ptr %.1.in.i, align 8
  br label %3

type_flatten.exit:                                ; preds = %3
  switch i32 %1, label %49 [
    i32 22, label %50
    i32 4, label %17
    i32 11, label %17
    i32 12, label %20
    i32 13, label %23
    i32 20, label %23
    i32 0, label %23
    i32 15, label %23
    i32 18, label %23
    i32 17, label %23
    i32 6, label %23
    i32 5, label %23
    i32 7, label %24
    i32 10, label %26
    i32 8, label %26
    i32 2, label %32
    i32 14, label %32
    i32 21, label %32
    i32 1, label %36
    i32 9, label %38
    i32 16, label %40
    i32 19, label %40
    i32 3, label %46
  ]

17:                                               ; preds = %type_flatten.exit, %type_flatten.exit
  %18 = add i32 %6, -13
  %19 = icmp ult i32 %18, 5
  br label %50

20:                                               ; preds = %type_flatten.exit
  %21 = load i32, ptr %0, align 8
  %22 = icmp ult i32 %21, 41
  br i1 %22, label %switch.lookup, label %50

23:                                               ; preds = %type_flatten.exit, %type_flatten.exit, %type_flatten.exit, %type_flatten.exit, %type_flatten.exit, %type_flatten.exit, %type_flatten.exit, %type_flatten.exit
  br label %50

24:                                               ; preds = %type_flatten.exit
  %25 = icmp ult i32 %6, 38
  br i1 %25, label %switch.lookup52, label %50

26:                                               ; preds = %type_flatten.exit, %type_flatten.exit
  %27 = add i32 %6, -13
  %28 = icmp ult i32 %27, 5
  br i1 %28, label %50, label %29

29:                                               ; preds = %26
  %30 = add i32 %6, -3
  %31 = icmp ult i32 %30, 10
  br label %50

32:                                               ; preds = %type_flatten.exit, %type_flatten.exit, %type_flatten.exit
  %33 = icmp eq i32 %6, 24
  %34 = icmp eq i32 %6, 30
  %35 = or i1 %33, %34
  br label %50

36:                                               ; preds = %type_flatten.exit
  %37 = icmp eq i32 %6, 24
  br label %50

38:                                               ; preds = %type_flatten.exit
  %39 = icmp ult i32 %6, 30
  br i1 %39, label %switch.lookup57, label %50

40:                                               ; preds = %type_flatten.exit, %type_flatten.exit
  switch i32 %6, label %.fold.split [
    i32 25, label %50
    i32 23, label %41
  ]

41:                                               ; preds = %40
  %42 = getelementptr inbounds i8, ptr %5, i64 56
  %43 = load ptr, ptr %42, align 8
  %44 = load i32, ptr %43, align 8
  %45 = icmp eq i32 %44, 25
  br label %50

.fold.split:                                      ; preds = %40
  br label %50

46:                                               ; preds = %type_flatten.exit
  %47 = add i32 %6, -23
  %48 = icmp ult i32 %47, -22
  br label %50

49:                                               ; preds = %type_flatten.exit
  tail call void (ptr, ...) @error_exit(ptr noundef nonnull @.str.33, ptr noundef nonnull @.str.34, ptr noundef nonnull @__func__.sema_type_property_is_valid_for_type, ptr noundef nonnull @.str.35, i32 noundef 3765) #14
  unreachable

switch.lookup:                                    ; preds = %20
  %switch.cast = zext nneg i32 %21 to i41
  %switch.downshift = lshr i41 -553488744448, %switch.cast
  %switch.masked = trunc i41 %switch.downshift to i1
  br label %50

switch.lookup52:                                  ; preds = %24
  %switch.cast53 = zext nneg i32 %6 to i38
  %switch.downshift55 = lshr i38 -127758499840, %switch.cast53
  %switch.masked56 = trunc i38 %switch.downshift55 to i1
  br label %50

switch.lookup57:                                  ; preds = %38
  %switch.cast58 = trunc nuw i32 %6 to i30
  %switch.downshift60 = lshr i30 -335544320, %switch.cast58
  %switch.masked61 = trunc i30 %switch.downshift60 to i1
  br label %50

50:                                               ; preds = %38, %switch.lookup57, %24, %switch.lookup52, %20, %switch.lookup, %41, %.fold.split, %40, %26, %29, %type_flatten.exit, %46, %36, %32, %23, %17
  %.035 = phi i1 [ %48, %46 ], [ %37, %36 ], [ %35, %32 ], [ true, %23 ], [ %19, %17 ], [ false, %type_flatten.exit ], [ true, %26 ], [ %31, %29 ], [ true, %40 ], [ %45, %41 ], [ false, %.fold.split ], [ %switch.masked, %switch.lookup ], [ false, %20 ], [ %switch.masked56, %switch.lookup52 ], [ false, %24 ], [ %switch.masked61, %switch.lookup57 ], [ false, %38 ]
  ret i1 %.035
}